target datalayout = "e-m:e-p270:32:32-p271:32:32-p272:64:64-i64:64-i128:128-f80:128-n8:16:32:64-S128"
target triple = "x86_64-pc-linux-gnu"

%struct.t_atoms = type { i32, ptr, ptr, ptr, ptr, i32, ptr, ptr, i8, i8, i8, i8, i8 }
%struct.t_symtab = type { i32, ptr }
%struct.t_topology = type { ptr, %struct.t_idef, %struct.t_atoms, %struct.t_block, i8, %struct.t_symtab }
%struct.t_idef = type { i32, i32, ptr, ptr, float, ptr, ptr, [95 x %struct.t_ilist], i32 }
%struct.t_ilist = type { i32, ptr, i32 }
%struct.t_block = type { i32, ptr, i32 }

; Function Attrs: mustprogress uwtable
define void @_Z8done_topP10t_topology(ptr noundef %0) #0 {
  %2 = alloca ptr, align 8
  store ptr %0, ptr %2, align 8, !tbaa !337
  %3 = load ptr, ptr %2, align 8, !tbaa !337
  %4 = getelementptr inbounds nuw %struct.t_topology, ptr %3, i32 0, i32 1
  call void @_Z9done_idefP6t_idef(ptr noundef %4)
  %5 = load ptr, ptr %2, align 8, !tbaa !337
  %6 = getelementptr inbounds nuw %struct.t_topology, ptr %5, i32 0, i32 2
  call void @_Z9done_atomP7t_atoms(ptr noundef %6)
  %7 = load ptr, ptr %2, align 8, !tbaa !337
  %8 = getelementptr inbounds nuw %struct.t_topology, ptr %7, i32 0, i32 5
  call void @_Z11done_symtabP8t_symtab(ptr noundef %8)
  %9 = load ptr, ptr %2, align 8, !tbaa !337
  %10 = getelementptr inbounds nuw %struct.t_topology, ptr %9, i32 0, i32 3
  call void @_Z10done_blockP7t_block(ptr noundef %10)
  ret void
}