; Function Attrs: mustprogress uwtable
define void @_Z8done_topP10t_topology(ptr noundef %0) local_unnamed_addr #3 {
  %2 = getelementptr inbounds nuw i8, ptr %0, i64 8
  tail call void @_Z9done_idefP6t_idef(ptr noundef nonnull %2)
  %3 = getelementptr inbounds nuw i8, ptr %0, i64 2344
  tail call void @_Z9done_atomP7t_atoms(ptr noundef nonnull %3)
  %4 = getelementptr inbounds nuw i8, ptr %0, i64 2448
  tail call void @_Z11done_symtabP8t_symtab(ptr noundef nonnull %4)
  %5 = getelementptr inbounds nuw i8, ptr %0, i64 2416
  tail call void @_Z10done_blockP7t_block(ptr noundef nonnull %5)
  ret void
}